; ModuleID = 'source-C-CXX/57/1250.c'
source_filename = "source-C-CXX/57/1250.c"
target datalayout = "e-m:e-p270:32:32-p271:32:32-p272:64:64-i64:64-f80:128-n8:16:32:64-S128"
target triple = "x86_64-pc-linux-gnu"

@.str = private unnamed_addr constant [4 x i8] c"%d\0A\00", align 1
@str = private unnamed_addr constant [2 x i8] c"1\00", align 1
@str.3 = private unnamed_addr constant [2 x i8] c"0\00", align 1

; Function Attrs: nounwind sspstrong uwtable
define dso_local i32 @main() local_unnamed_addr #0 {
  %1 = alloca i32, align 4
  %2 = alloca [81 x i8], align 16
  %3 = bitcast i32* %1 to i8*
  call void @llvm.lifetime.start.p0i8(i64 4, i8* nonnull %3) #6
  %4 = getelementptr inbounds [81 x i8], [81 x i8]* %2, i64 0, i64 0
  call void @llvm.lifetime.start.p0i8(i64 81, i8* nonnull %4) #6
  %5 = call i32 (i8*, ...) @__isoc99_scanf(i8* getelementptr inbounds ([4 x i8], [4 x i8]* @.str, i64 0, i64 0), i32* nonnull %1)
  %6 = load i32, i32* %1, align 4, !tbaa !5
  %7 = icmp sgt i32 %6, 0
  br i1 %7, label %8, label %52

8:                                                ; preds = %0, %45
  %9 = phi i32 [ %49, %45 ], [ 0, %0 ]
  %10 = phi i32 [ %47, %45 ], [ undef, %0 ]
  %11 = call i32 (i8*, ...) bitcast (i32 (...)* @gets to i32 (i8*, ...)*)(i8* nonnull %4) #6
  %12 = call i64 @strlen(i8* noundef nonnull %4) #7
  %13 = trunc i64 %12 to i32
  %14 = icmp sgt i32 %13, 0
  br i1 %14, label %15, label %41

15:                                               ; preds = %8
  %16 = load i8, i8* %4, align 16
  %17 = add i8 %16, -48
  %18 = icmp ult i8 %17, 10
  br i1 %18, label %45, label %19

19:                                               ; preds = %15
  %20 = add i32 %10, %13
  %21 = and i64 %12, 4294967295
  br label %22

22:                                               ; preds = %38, %19
  %23 = phi i8 [ %16, %19 ], [ %40, %38 ]
  %24 = phi i64 [ 0, %19 ], [ %36, %38 ]
  %25 = add i8 %23, -48
  %26 = icmp ult i8 %25, 10
  %27 = add i8 %23, -97
  %28 = icmp ult i8 %27, 26
  %29 = or i1 %26, %28
  br i1 %29, label %35, label %30

30:                                               ; preds = %22
  %31 = add i8 %23, -65
  %32 = icmp ult i8 %31, 26
  %33 = icmp eq i8 %23, 95
  %34 = or i1 %33, %32
  br i1 %34, label %35, label %45

35:                                               ; preds = %30, %22
  %36 = add nuw nsw i64 %24, 1
  %37 = icmp eq i64 %36, %21
  br i1 %37, label %41, label %38, !llvm.loop !9

38:                                               ; preds = %35
  %39 = getelementptr inbounds [81 x i8], [81 x i8]* %2, i64 0, i64 %36
  %40 = load i8, i8* %39, align 1, !tbaa !11
  br label %22

41:                                               ; preds = %35, %8
  %42 = phi i32 [ %10, %8 ], [ %20, %35 ]
  %43 = icmp eq i32 %42, -1
  %44 = select i1 %43, i8* getelementptr inbounds ([2 x i8], [2 x i8]* @str.3, i64 0, i64 0), i8* getelementptr inbounds ([2 x i8], [2 x i8]* @str, i64 0, i64 0)
  br label %45

45:                                               ; preds = %30, %41, %15
  %46 = phi i8* [ getelementptr inbounds ([2 x i8], [2 x i8]* @str.3, i64 0, i64 0), %15 ], [ %44, %41 ], [ getelementptr inbounds ([2 x i8], [2 x i8]* @str.3, i64 0, i64 0), %30 ]
  %47 = phi i32 [ -1, %15 ], [ %42, %41 ], [ -1, %30 ]
  %48 = call i32 @puts(i8* nonnull dereferenceable(1) %46)
  %49 = add nuw nsw i32 %9, 1
  %50 = load i32, i32* %1, align 4, !tbaa !5
  %51 = icmp slt i32 %49, %50
  br i1 %51, label %8, label %52, !llvm.loop !12

52:                                               ; preds = %45, %0
  call void @llvm.lifetime.end.p0i8(i64 81, i8* nonnull %4) #6
  call void @llvm.lifetime.end.p0i8(i64 4, i8* nonnull %3) #6
  ret i32 0
}

; Function Attrs: argmemonly mustprogress nofree nosync nounwind willreturn
declare void @llvm.lifetime.start.p0i8(i64 immarg, i8* nocapture) #1

; Function Attrs: nofree nounwind
declare noundef i32 @__isoc99_scanf(i8* nocapture noundef readonly, ...) local_unnamed_addr #2

declare i32 @gets(...) local_unnamed_addr #3

; Function Attrs: argmemonly mustprogress nofree nounwind readonly willreturn
declare i64 @strlen(i8* nocapture) local_unnamed_addr #4

; Function Attrs: argmemonly mustprogress nofree nosync nounwind willreturn
declare void @llvm.lifetime.end.p0i8(i64 immarg, i8* nocapture) #1

; Function Attrs: nofree nounwind
declare noundef i32 @puts(i8* nocapture noundef readonly) local_unnamed_addr #5


!llvm.module.flags = !{!0, !1, !2, !3}
!llvm.ident = !{!4}

!0 = !{i32 1, !"wchar_size", i32 4}
!1 = !{i32 7, !"PIC Level", i32 2}
!2 = !{i32 7, !"PIE Level", i32 2}
!3 = !{i32 7, !"uwtable", i32 1}
!4 = !{!"clang version 13.0.0"}
!5 = !{!6, !6, i64 0}
!6 = !{!"int", !7, i64 0}
!7 = !{!"omnipotent char", !8, i64 0}
!8 = !{!"Simple C/C++ TBAA"}
!9 = distinct !{!9, !10}
!10 = !{!"llvm.loop.mustprogress"}
!11 = !{!7, !7, i64 0}
!12 = distinct !{!12, !10}
